target datalayout = "e-m:e-p270:32:32-p271:32:32-p272:64:64-i64:64-i128:128-f80:128-n8:16:32:64-S128"
target triple = "x86_64-pc-linux-gnu"

%struct.PGNoticeHooks = type { ptr, ptr, ptr, ptr }
%struct.pg_result = type { i32, i32, ptr, ptr, i32, i32, ptr, i32, [64 x i8], i32, %struct.PGNoticeHooks, ptr, i32, i32, ptr, ptr, ptr, [1 x i8], ptr, i32, i32, i64 }

; Function Attrs: nounwind uwtable
define internal void @defaultNoticeReceiver(ptr noundef %0, ptr noundef %1) #0 {
  %3 = alloca ptr, align 8
  %4 = alloca ptr, align 8
  store ptr %0, ptr %3, align 8
  store ptr %1, ptr %4, align 8
  %5 = load ptr, ptr %4, align 8
  %6 = getelementptr inbounds nuw %struct.pg_result, ptr %5, i32 0, i32 10
  %7 = getelementptr inbounds nuw %struct.PGNoticeHooks, ptr %6, i32 0, i32 2
  %8 = load ptr, ptr %7, align 8
  %9 = icmp ne ptr %8, null
  br i1 %9, label %10, label %21

10:                                               ; preds = %2
  %11 = load ptr, ptr %4, align 8
  %12 = getelementptr inbounds nuw %struct.pg_result, ptr %11, i32 0, i32 10
  %13 = getelementptr inbounds nuw %struct.PGNoticeHooks, ptr %12, i32 0, i32 2
  %14 = load ptr, ptr %13, align 8
  %15 = load ptr, ptr %4, align 8
  %16 = getelementptr inbounds nuw %struct.pg_result, ptr %15, i32 0, i32 10
  %17 = getelementptr inbounds nuw %struct.PGNoticeHooks, ptr %16, i32 0, i32 3
  %18 = load ptr, ptr %17, align 8
  %19 = load ptr, ptr %4, align 8
  %20 = call ptr @PQresultErrorMessage(ptr noundef %19)
  call void %14(ptr noundef %18, ptr noundef %20)
  br label %21

21:                                               ; preds = %10, %2
  ret void
}