; Function Attrs: nounwind uwtable
define internal void @defaultNoticeReceiver(ptr readnone captures(none) %0, ptr noundef %1) #0 {
  %3 = getelementptr inbounds nuw i8, ptr %1, i64 128
  %4 = load ptr, ptr %3, align 8
  %.not = icmp eq ptr %4, null
  br i1 %.not, label %9, label %5

5:                                                ; preds = %2
  %6 = getelementptr inbounds nuw i8, ptr %1, i64 136
  %7 = load ptr, ptr %6, align 8
  %8 = tail call ptr @PQresultErrorMessage(ptr noundef nonnull %1) #25
  tail call void %4(ptr noundef %7, ptr noundef %8) #25
  br label %9

9:                                                ; preds = %5, %2
  ret void
}